target datalayout = "e-m:e-p270:32:32-p271:32:32-p272:64:64-i64:64-i128:128-f80:128-n8:16:32:64-S128"
target triple = "x86_64-pc-linux-gnu"

%struct.evp_Encode_Ctx_st = type { i32, i32, [80 x i8], i32, i32 }

; Function Attrs: nounwind uwtable
define i32 @EVP_DecodeFinal(ptr noundef %0, ptr noundef %1, ptr noundef %2) #0 {
  %4 = alloca i32, align 4
  %5 = alloca ptr, align 8
  %6 = alloca ptr, align 8
  %7 = alloca ptr, align 8
  %8 = alloca i32, align 4
  %9 = alloca i32, align 4
  store ptr %0, ptr %5, align 8, !tbaa !3
  store ptr %1, ptr %6, align 8, !tbaa !15
  store ptr %2, ptr %7, align 8, !tbaa !17
  call void @llvm.lifetime.start.p0(i64 4, ptr %8) #5
  %10 = load ptr, ptr %7, align 8, !tbaa !17
  store i32 0, ptr %10, align 4, !tbaa !11
  %11 = load ptr, ptr %5, align 8, !tbaa !3
  %12 = getelementptr inbounds nuw %struct.evp_Encode_Ctx_st, ptr %11, i32 0, i32 0
  %13 = load i32, ptr %12, align 4, !tbaa !8
  %14 = icmp ne i32 %13, 0
  br i1 %14, label %15, label %33

15:                                               ; preds = %3
  %16 = load ptr, ptr %5, align 8, !tbaa !3
  %17 = load ptr, ptr %6, align 8, !tbaa !15
  %18 = load ptr, ptr %5, align 8, !tbaa !3
  %19 = getelementptr inbounds nuw %struct.evp_Encode_Ctx_st, ptr %18, i32 0, i32 2
  %20 = getelementptr inbounds [80 x i8], ptr %19, i64 0, i64 0
  %21 = load ptr, ptr %5, align 8, !tbaa !3
  %22 = getelementptr inbounds nuw %struct.evp_Encode_Ctx_st, ptr %21, i32 0, i32 0
  %23 = load i32, ptr %22, align 4, !tbaa !8
  %24 = call i32 @evp_decodeblock_int(ptr noundef %16, ptr noundef %17, ptr noundef %20, i32 noundef %23)
  store i32 %24, ptr %8, align 4, !tbaa !11
  %25 = load i32, ptr %8, align 4, !tbaa !11
  %26 = icmp slt i32 %25, 0
  br i1 %26, label %27, label %28

27:                                               ; preds = %15
  store i32 -1, ptr %4, align 4
  store i32 1, ptr %9, align 4
  br label %34

28:                                               ; preds = %15
  %29 = load ptr, ptr %5, align 8, !tbaa !3
  %30 = getelementptr inbounds nuw %struct.evp_Encode_Ctx_st, ptr %29, i32 0, i32 0
  store i32 0, ptr %30, align 4, !tbaa !8
  %31 = load i32, ptr %8, align 4, !tbaa !11
  %32 = load ptr, ptr %7, align 8, !tbaa !17
  store i32 %31, ptr %32, align 4, !tbaa !11
  store i32 1, ptr %4, align 4
  store i32 1, ptr %9, align 4
  br label %34

33:                                               ; preds = %3
  store i32 1, ptr %4, align 4
  store i32 1, ptr %9, align 4
  br label %34

34:                                               ; preds = %33, %28, %27
  call void @llvm.lifetime.end.p0(i64 4, ptr %8) #5
  %35 = load i32, ptr %4, align 4
  ret i32 %35
}