; Function Attrs: nofree norecurse nosync nounwind memory(argmem: readwrite) uwtable
define range(i32 -1, 2) i32 @EVP_DecodeFinal(ptr noundef captures(address_is_null) %0, ptr noundef writeonly captures(none) %1, ptr noundef writeonly captures(none) initializes((0, 4)) %2) local_unnamed_addr #7 {
  store i32 0, ptr %2, align 4, !tbaa !11
  %4 = load i32, ptr %0, align 4, !tbaa !3
  %.not = icmp eq i32 %4, 0
  br i1 %.not, label %10, label %5

5:                                                ; preds = %3
  %6 = getelementptr inbounds nuw i8, ptr %0, i64 8
  %7 = tail call fastcc i32 @evp_decodeblock_int(ptr noundef nonnull %0, ptr noundef %1, ptr noundef nonnull %6, i32 noundef %4)
  %8 = icmp slt i32 %7, 0
  br i1 %8, label %10, label %9

9:                                                ; preds = %5
  store i32 0, ptr %0, align 4, !tbaa !3
  store i32 %7, ptr %2, align 4, !tbaa !11
  br label %10

10:                                               ; preds = %3, %5, %9
  %.0 = phi i32 [ 1, %9 ], [ -1, %5 ], [ 1, %3 ]
  ret i32 %.0
}